
_mostrarLCD:

;p7e.c,27 :: 		void mostrarLCD(float value){
;p7e.c,28 :: 		Lcd_Cmd(_Lcd_Clear);
	MOVLW       1
	MOVWF       FARG_Lcd_Cmd_out_char+0 
	CALL        _Lcd_Cmd+0, 0
;p7e.c,29 :: 		FloatToStr(value, txt);
	MOVF        FARG_mostrarLCD_value+0, 0 
	MOVWF       FARG_FloatToStr_fnum+0 
	MOVF        FARG_mostrarLCD_value+1, 0 
	MOVWF       FARG_FloatToStr_fnum+1 
	MOVF        FARG_mostrarLCD_value+2, 0 
	MOVWF       FARG_FloatToStr_fnum+2 
	MOVF        FARG_mostrarLCD_value+3, 0 
	MOVWF       FARG_FloatToStr_fnum+3 
	MOVLW       _txt+0
	MOVWF       FARG_FloatToStr_str+0 
	MOVLW       hi_addr(_txt+0)
	MOVWF       FARG_FloatToStr_str+1 
	CALL        _FloatToStr+0, 0
;p7e.c,30 :: 		Lcd_Out(1, 3, txt);
	MOVLW       1
	MOVWF       FARG_Lcd_Out_row+0 
	MOVLW       3
	MOVWF       FARG_Lcd_Out_column+0 
	MOVLW       _txt+0
	MOVWF       FARG_Lcd_Out_text+0 
	MOVLW       hi_addr(_txt+0)
	MOVWF       FARG_Lcd_Out_text+1 
	CALL        _Lcd_Out+0, 0
;p7e.c,31 :: 		}
L_end_mostrarLCD:
	RETURN      0
; end of _mostrarLCD

_vToPa:

;p7e.c,33 :: 		float vToPa(float v){
;p7e.c,34 :: 		return 54.2 * v - 14.11;
	MOVLW       205
	MOVWF       R0 
	MOVLW       204
	MOVWF       R1 
	MOVLW       88
	MOVWF       R2 
	MOVLW       132
	MOVWF       R3 
	MOVF        FARG_vToPa_v+0, 0 
	MOVWF       R4 
	MOVF        FARG_vToPa_v+1, 0 
	MOVWF       R5 
	MOVF        FARG_vToPa_v+2, 0 
	MOVWF       R6 
	MOVF        FARG_vToPa_v+3, 0 
	MOVWF       R7 
	CALL        _Mul_32x32_FP+0, 0
	MOVLW       143
	MOVWF       R4 
	MOVLW       194
	MOVWF       R5 
	MOVLW       97
	MOVWF       R6 
	MOVLW       130
	MOVWF       R7 
	CALL        _Sub_32x32_FP+0, 0
;p7e.c,35 :: 		}
L_end_vToPa:
	RETURN      0
; end of _vToPa

_changeUnit:

;p7e.c,37 :: 		float changeUnit(float pas, int opt){
;p7e.c,40 :: 		switch(opt){
	GOTO        L_changeUnit0
;p7e.c,41 :: 		case 0: // PSI
L_changeUnit2:
;p7e.c,42 :: 		pressure = 6.8927 * pas/1000;
	MOVLW       0
	MOVWF       R0 
	MOVLW       145
	MOVWF       R1 
	MOVLW       92
	MOVWF       R2 
	MOVLW       129
	MOVWF       R3 
	MOVF        FARG_changeUnit_pas+0, 0 
	MOVWF       R4 
	MOVF        FARG_changeUnit_pas+1, 0 
	MOVWF       R5 
	MOVF        FARG_changeUnit_pas+2, 0 
	MOVWF       R6 
	MOVF        FARG_changeUnit_pas+3, 0 
	MOVWF       R7 
	CALL        _Mul_32x32_FP+0, 0
	MOVLW       0
	MOVWF       R4 
	MOVLW       0
	MOVWF       R5 
	MOVLW       122
	MOVWF       R6 
	MOVLW       136
	MOVWF       R7 
	CALL        _Div_32x32_FP+0, 0
	MOVF        R0, 0 
	MOVWF       changeUnit_pressure_L0+0 
	MOVF        R1, 0 
	MOVWF       changeUnit_pressure_L0+1 
	MOVF        R2, 0 
	MOVWF       changeUnit_pressure_L0+2 
	MOVF        R3, 0 
	MOVWF       changeUnit_pressure_L0+3 
;p7e.c,43 :: 		break;
	GOTO        L_changeUnit1
;p7e.c,44 :: 		case 1: // Atm
L_changeUnit3:
;p7e.c,45 :: 		pressure = 101.325 * pas/1000;
	MOVLW       102
	MOVWF       R0 
	MOVLW       166
	MOVWF       R1 
	MOVLW       74
	MOVWF       R2 
	MOVLW       133
	MOVWF       R3 
	MOVF        FARG_changeUnit_pas+0, 0 
	MOVWF       R4 
	MOVF        FARG_changeUnit_pas+1, 0 
	MOVWF       R5 
	MOVF        FARG_changeUnit_pas+2, 0 
	MOVWF       R6 
	MOVF        FARG_changeUnit_pas+3, 0 
	MOVWF       R7 
	CALL        _Mul_32x32_FP+0, 0
	MOVLW       0
	MOVWF       R4 
	MOVLW       0
	MOVWF       R5 
	MOVLW       122
	MOVWF       R6 
	MOVLW       136
	MOVWF       R7 
	CALL        _Div_32x32_FP+0, 0
	MOVF        R0, 0 
	MOVWF       changeUnit_pressure_L0+0 
	MOVF        R1, 0 
	MOVWF       changeUnit_pressure_L0+1 
	MOVF        R2, 0 
	MOVWF       changeUnit_pressure_L0+2 
	MOVF        R3, 0 
	MOVWF       changeUnit_pressure_L0+3 
;p7e.c,46 :: 		break;
	GOTO        L_changeUnit1
;p7e.c,47 :: 		case 2: // mbar
L_changeUnit4:
;p7e.c,48 :: 		pressure = 0.1 * pas/1000;
	MOVLW       205
	MOVWF       R0 
	MOVLW       204
	MOVWF       R1 
	MOVLW       76
	MOVWF       R2 
	MOVLW       123
	MOVWF       R3 
	MOVF        FARG_changeUnit_pas+0, 0 
	MOVWF       R4 
	MOVF        FARG_changeUnit_pas+1, 0 
	MOVWF       R5 
	MOVF        FARG_changeUnit_pas+2, 0 
	MOVWF       R6 
	MOVF        FARG_changeUnit_pas+3, 0 
	MOVWF       R7 
	CALL        _Mul_32x32_FP+0, 0
	MOVLW       0
	MOVWF       R4 
	MOVLW       0
	MOVWF       R5 
	MOVLW       122
	MOVWF       R6 
	MOVLW       136
	MOVWF       R7 
	CALL        _Div_32x32_FP+0, 0
	MOVF        R0, 0 
	MOVWF       changeUnit_pressure_L0+0 
	MOVF        R1, 0 
	MOVWF       changeUnit_pressure_L0+1 
	MOVF        R2, 0 
	MOVWF       changeUnit_pressure_L0+2 
	MOVF        R3, 0 
	MOVWF       changeUnit_pressure_L0+3 
;p7e.c,49 :: 		break;
	GOTO        L_changeUnit1
;p7e.c,50 :: 		case 3: // mmHg
L_changeUnit5:
;p7e.c,51 :: 		pressure = 0.13328 * pas/1000;
	MOVLW       141
	MOVWF       R0 
	MOVLW       122
	MOVWF       R1 
	MOVLW       8
	MOVWF       R2 
	MOVLW       124
	MOVWF       R3 
	MOVF        FARG_changeUnit_pas+0, 0 
	MOVWF       R4 
	MOVF        FARG_changeUnit_pas+1, 0 
	MOVWF       R5 
	MOVF        FARG_changeUnit_pas+2, 0 
	MOVWF       R6 
	MOVF        FARG_changeUnit_pas+3, 0 
	MOVWF       R7 
	CALL        _Mul_32x32_FP+0, 0
	MOVLW       0
	MOVWF       R4 
	MOVLW       0
	MOVWF       R5 
	MOVLW       122
	MOVWF       R6 
	MOVLW       136
	MOVWF       R7 
	CALL        _Div_32x32_FP+0, 0
	MOVF        R0, 0 
	MOVWF       changeUnit_pressure_L0+0 
	MOVF        R1, 0 
	MOVWF       changeUnit_pressure_L0+1 
	MOVF        R2, 0 
	MOVWF       changeUnit_pressure_L0+2 
	MOVF        R3, 0 
	MOVWF       changeUnit_pressure_L0+3 
;p7e.c,52 :: 		break;
	GOTO        L_changeUnit1
;p7e.c,53 :: 		case 4: // n/m^2
L_changeUnit6:
;p7e.c,54 :: 		pressure = 0.001 * pas/1000;
	MOVLW       111
	MOVWF       R0 
	MOVLW       18
	MOVWF       R1 
	MOVLW       3
	MOVWF       R2 
	MOVLW       117
	MOVWF       R3 
	MOVF        FARG_changeUnit_pas+0, 0 
	MOVWF       R4 
	MOVF        FARG_changeUnit_pas+1, 0 
	MOVWF       R5 
	MOVF        FARG_changeUnit_pas+2, 0 
	MOVWF       R6 
	MOVF        FARG_changeUnit_pas+3, 0 
	MOVWF       R7 
	CALL        _Mul_32x32_FP+0, 0
	MOVLW       0
	MOVWF       R4 
	MOVLW       0
	MOVWF       R5 
	MOVLW       122
	MOVWF       R6 
	MOVLW       136
	MOVWF       R7 
	CALL        _Div_32x32_FP+0, 0
	MOVF        R0, 0 
	MOVWF       changeUnit_pressure_L0+0 
	MOVF        R1, 0 
	MOVWF       changeUnit_pressure_L0+1 
	MOVF        R2, 0 
	MOVWF       changeUnit_pressure_L0+2 
	MOVF        R3, 0 
	MOVWF       changeUnit_pressure_L0+3 
;p7e.c,55 :: 		break;
	GOTO        L_changeUnit1
;p7e.c,56 :: 		case 5: // Kg/cm^2
L_changeUnit7:
;p7e.c,57 :: 		pressure = 98.1 * pas/1000;
	MOVLW       51
	MOVWF       R0 
	MOVLW       51
	MOVWF       R1 
	MOVLW       68
	MOVWF       R2 
	MOVLW       133
	MOVWF       R3 
	MOVF        FARG_changeUnit_pas+0, 0 
	MOVWF       R4 
	MOVF        FARG_changeUnit_pas+1, 0 
	MOVWF       R5 
	MOVF        FARG_changeUnit_pas+2, 0 
	MOVWF       R6 
	MOVF        FARG_changeUnit_pas+3, 0 
	MOVWF       R7 
	CALL        _Mul_32x32_FP+0, 0
	MOVLW       0
	MOVWF       R4 
	MOVLW       0
	MOVWF       R5 
	MOVLW       122
	MOVWF       R6 
	MOVLW       136
	MOVWF       R7 
	CALL        _Div_32x32_FP+0, 0
	MOVF        R0, 0 
	MOVWF       changeUnit_pressure_L0+0 
	MOVF        R1, 0 
	MOVWF       changeUnit_pressure_L0+1 
	MOVF        R2, 0 
	MOVWF       changeUnit_pressure_L0+2 
	MOVF        R3, 0 
	MOVWF       changeUnit_pressure_L0+3 
;p7e.c,58 :: 		break;
	GOTO        L_changeUnit1
;p7e.c,59 :: 		case 6: // Kp/cm^2
L_changeUnit8:
;p7e.c,60 :: 		pressure = 98.1 * pas/1000;
	MOVLW       51
	MOVWF       R0 
	MOVLW       51
	MOVWF       R1 
	MOVLW       68
	MOVWF       R2 
	MOVLW       133
	MOVWF       R3 
	MOVF        FARG_changeUnit_pas+0, 0 
	MOVWF       R4 
	MOVF        FARG_changeUnit_pas+1, 0 
	MOVWF       R5 
	MOVF        FARG_changeUnit_pas+2, 0 
	MOVWF       R6 
	MOVF        FARG_changeUnit_pas+3, 0 
	MOVWF       R7 
	CALL        _Mul_32x32_FP+0, 0
	MOVLW       0
	MOVWF       R4 
	MOVLW       0
	MOVWF       R5 
	MOVLW       122
	MOVWF       R6 
	MOVLW       136
	MOVWF       R7 
	CALL        _Div_32x32_FP+0, 0
	MOVF        R0, 0 
	MOVWF       changeUnit_pressure_L0+0 
	MOVF        R1, 0 
	MOVWF       changeUnit_pressure_L0+1 
	MOVF        R2, 0 
	MOVWF       changeUnit_pressure_L0+2 
	MOVF        R3, 0 
	MOVWF       changeUnit_pressure_L0+3 
;p7e.c,61 :: 		default:
L_changeUnit9:
;p7e.c,62 :: 		break;
	GOTO        L_changeUnit1
;p7e.c,63 :: 		}
L_changeUnit0:
	MOVLW       0
	XORWF       FARG_changeUnit_opt+1, 0 
	BTFSS       STATUS+0, 2 
	GOTO        L__changeUnit18
	MOVLW       0
	XORWF       FARG_changeUnit_opt+0, 0 
L__changeUnit18:
	BTFSC       STATUS+0, 2 
	GOTO        L_changeUnit2
	MOVLW       0
	XORWF       FARG_changeUnit_opt+1, 0 
	BTFSS       STATUS+0, 2 
	GOTO        L__changeUnit19
	MOVLW       1
	XORWF       FARG_changeUnit_opt+0, 0 
L__changeUnit19:
	BTFSC       STATUS+0, 2 
	GOTO        L_changeUnit3
	MOVLW       0
	XORWF       FARG_changeUnit_opt+1, 0 
	BTFSS       STATUS+0, 2 
	GOTO        L__changeUnit20
	MOVLW       2
	XORWF       FARG_changeUnit_opt+0, 0 
L__changeUnit20:
	BTFSC       STATUS+0, 2 
	GOTO        L_changeUnit4
	MOVLW       0
	XORWF       FARG_changeUnit_opt+1, 0 
	BTFSS       STATUS+0, 2 
	GOTO        L__changeUnit21
	MOVLW       3
	XORWF       FARG_changeUnit_opt+0, 0 
L__changeUnit21:
	BTFSC       STATUS+0, 2 
	GOTO        L_changeUnit5
	MOVLW       0
	XORWF       FARG_changeUnit_opt+1, 0 
	BTFSS       STATUS+0, 2 
	GOTO        L__changeUnit22
	MOVLW       4
	XORWF       FARG_changeUnit_opt+0, 0 
L__changeUnit22:
	BTFSC       STATUS+0, 2 
	GOTO        L_changeUnit6
	MOVLW       0
	XORWF       FARG_changeUnit_opt+1, 0 
	BTFSS       STATUS+0, 2 
	GOTO        L__changeUnit23
	MOVLW       5
	XORWF       FARG_changeUnit_opt+0, 0 
L__changeUnit23:
	BTFSC       STATUS+0, 2 
	GOTO        L_changeUnit7
	MOVLW       0
	XORWF       FARG_changeUnit_opt+1, 0 
	BTFSS       STATUS+0, 2 
	GOTO        L__changeUnit24
	MOVLW       6
	XORWF       FARG_changeUnit_opt+0, 0 
L__changeUnit24:
	BTFSC       STATUS+0, 2 
	GOTO        L_changeUnit8
	GOTO        L_changeUnit9
L_changeUnit1:
;p7e.c,65 :: 		return pressure;
	MOVF        changeUnit_pressure_L0+0, 0 
	MOVWF       R0 
	MOVF        changeUnit_pressure_L0+1, 0 
	MOVWF       R1 
	MOVF        changeUnit_pressure_L0+2, 0 
	MOVWF       R2 
	MOVF        changeUnit_pressure_L0+3, 0 
	MOVWF       R3 
;p7e.c,66 :: 		}
L_end_changeUnit:
	RETURN      0
; end of _changeUnit

_interrupt:

;p7e.c,68 :: 		void interrupt(){
;p7e.c,71 :: 		if(PIR1.ADIF == 1){
	BTFSS       PIR1+0, 6 
	GOTO        L_interrupt10
;p7e.c,74 :: 		v0 = (ADRESH << 8) + ADRESL;
	MOVF        ADRESH+0, 0 
	MOVWF       R1 
	CLRF        R0 
	MOVF        ADRESL+0, 0 
	ADDWF       R0, 1 
	MOVLW       0
	ADDWFC      R1, 1 
	MOVF        R0, 0 
	MOVWF       _v0+0 
	MOVF        R1, 0 
	MOVWF       _v0+1 
;p7e.c,75 :: 		vi = v0 * LAMBDA;
	CALL        _int2double+0, 0
	MOVLW       82
	MOVWF       R4 
	MOVLW       39
	MOVWF       R5 
	MOVLW       32
	MOVWF       R6 
	MOVLW       119
	MOVWF       R7 
	CALL        _Mul_32x32_FP+0, 0
	MOVF        R0, 0 
	MOVWF       _vi+0 
	MOVF        R1, 0 
	MOVWF       _vi+1 
	MOVF        R2, 0 
	MOVWF       _vi+2 
	MOVF        R3, 0 
	MOVWF       _vi+3 
;p7e.c,77 :: 		pa = vToPa(vi);
	MOVF        R0, 0 
	MOVWF       FARG_vToPa_v+0 
	MOVF        R1, 0 
	MOVWF       FARG_vToPa_v+1 
	MOVF        R2, 0 
	MOVWF       FARG_vToPa_v+2 
	MOVF        R3, 0 
	MOVWF       FARG_vToPa_v+3 
	CALL        _vToPa+0, 0
	MOVF        R0, 0 
	MOVWF       _pa+0 
	MOVF        R1, 0 
	MOVWF       _pa+1 
	MOVF        R2, 0 
	MOVWF       _pa+2 
	MOVF        R3, 0 
	MOVWF       _pa+3 
;p7e.c,79 :: 		mostrarLCD(pa);
	MOVF        R0, 0 
	MOVWF       FARG_mostrarLCD_value+0 
	MOVF        R1, 0 
	MOVWF       FARG_mostrarLCD_value+1 
	MOVF        R2, 0 
	MOVWF       FARG_mostrarLCD_value+2 
	MOVF        R3, 0 
	MOVWF       FARG_mostrarLCD_value+3 
	CALL        _mostrarLCD+0, 0
;p7e.c,82 :: 		T0CON.TMR0ON = 1;
	BSF         T0CON+0, 7 
;p7e.c,83 :: 		TMR0H = (ALFA >> 8);
	MOVLW       11
	MOVWF       TMR0H+0 
;p7e.c,84 :: 		TMR0L = ALFA;
	MOVLW       220
	MOVWF       TMR0L+0 
;p7e.c,87 :: 		ADCON0.ADON = 0;
	BCF         ADCON0+0, 0 
;p7e.c,88 :: 		PIR1.ADIF = 0;
	BCF         PIR1+0, 6 
;p7e.c,89 :: 		}
L_interrupt10:
;p7e.c,92 :: 		if(INTCON.TMR0IF == 1){
	BTFSS       INTCON+0, 2 
	GOTO        L_interrupt11
;p7e.c,95 :: 		ADCON0.ADON = 1;
	BSF         ADCON0+0, 0 
;p7e.c,96 :: 		ADCON0.GO = 1;
	BSF         ADCON0+0, 2 
;p7e.c,99 :: 		T0CON.TMR0ON = 0;
	BCF         T0CON+0, 7 
;p7e.c,100 :: 		INTCON.TMR0IF = 0;
	BCF         INTCON+0, 2 
;p7e.c,101 :: 		}
L_interrupt11:
;p7e.c,104 :: 		if(INTCON3.INT1IF == 1){
	BTFSS       INTCON3+0, 0 
	GOTO        L_interrupt12
;p7e.c,108 :: 		INTCON3.INT1IF = 0;
	BCF         INTCON3+0, 0 
;p7e.c,109 :: 		}
L_interrupt12:
;p7e.c,110 :: 		}
L_end_interrupt:
L__interrupt26:
	RETFIE      1
; end of _interrupt

_main:

;p7e.c,112 :: 		void main(){
;p7e.c,113 :: 		Lcd_init();
	CALL        _Lcd_Init+0, 0
;p7e.c,116 :: 		TRISB.B0 = 0;
	BCF         TRISB+0, 0 
;p7e.c,117 :: 		TRISB.B1 = 1;
	BSF         TRISB+0, 1 
;p7e.c,118 :: 		TRISE.B2 = 1;
	BSF         TRISE+0, 2 
;p7e.c,121 :: 		ADCON0 = 0x79;
	MOVLW       121
	MOVWF       ADCON0+0 
;p7e.c,122 :: 		ADCON1 = 0xC0;
	MOVLW       192
	MOVWF       ADCON1+0 
;p7e.c,125 :: 		INTCON.PEIE = 1;
	BSF         INTCON+0, 6 
;p7e.c,128 :: 		PIR1.ADIF = 0;
	BCF         PIR1+0, 6 
;p7e.c,129 :: 		PIE1.ADIE = 1;
	BSF         PIE1+0, 6 
;p7e.c,132 :: 		T0CON = 0x83;
	MOVLW       131
	MOVWF       T0CON+0 
;p7e.c,133 :: 		TMR0H = (ALFA >> 8);
	MOVLW       11
	MOVWF       TMR0H+0 
;p7e.c,134 :: 		TMR0L = ALFA;
	MOVLW       220
	MOVWF       TMR0L+0 
;p7e.c,137 :: 		INTCON.TMR0IF = 0;
	BCF         INTCON+0, 2 
;p7e.c,138 :: 		INTCON.TMR0IE = 1;
	BSF         INTCON+0, 5 
;p7e.c,141 :: 		INTCON2.INTEDG1 = 1;
	BSF         INTCON2+0, 5 
;p7e.c,142 :: 		INTCON3.INT1IF = 0;
	BCF         INTCON3+0, 0 
;p7e.c,143 :: 		INTCON3.INT1IE = 1;
	BSF         INTCON3+0, 3 
;p7e.c,146 :: 		INTCON.GIE = 1;
	BSF         INTCON+0, 7 
;p7e.c,149 :: 		ADCON0.GO = 1;
	BSF         ADCON0+0, 2 
;p7e.c,151 :: 		while(1){
L_main13:
;p7e.c,153 :: 		}
	GOTO        L_main13
;p7e.c,154 :: 		}
L_end_main:
	GOTO        $+0
; end of _main
